; Function Attrs: nounwind uwtable
define void @wolfSSL_CertManagerFree(ptr noundef %0) local_unnamed_addr #0 {
  %2 = alloca i32, align 4
  %3 = alloca i32, align 4
  %.not = icmp eq ptr %0, null
  br i1 %.not, label %13, label %4

4:                                                ; preds = %1
  call void @llvm.lifetime.start.p0(i64 4, ptr nonnull %2) #22
  store i32 0, ptr %2, align 4, !tbaa !3
  call void @llvm.lifetime.start.p0(i64 4, ptr nonnull %3) #22
  %5 = getelementptr inbounds nuw i8, ptr %0, i64 232
  call void @wolfSSL_RefWithMutexDec(ptr noundef nonnull %5, ptr noundef nonnull %2, ptr noundef nonnull %3) #22
  %6 = load i32, ptr %2, align 4, !tbaa !3
  %.not9 = icmp eq i32 %6, 0
  br i1 %.not9, label %12, label %7

7:                                                ; preds = %4
  %8 = getelementptr inbounds nuw i8, ptr %0, i64 88
  %9 = load ptr, ptr %8, align 8, !tbaa !16
  call void @FreeSignerTable(ptr noundef nonnull %0, i32 noundef 11, ptr noundef %9) #22
  %10 = getelementptr inbounds nuw i8, ptr %0, i64 184
  %11 = call i32 @wc_FreeMutex(ptr noundef nonnull %10) #22
  call void @wolfSSL_RefWithMutexFree(ptr noundef nonnull %5) #22
  call void @wolfSSL_Free(ptr noundef nonnull %0) #22
  br label %12

12:                                               ; preds = %7, %4
  call void @llvm.lifetime.end.p0(i64 4, ptr nonnull %3) #22
  call void @llvm.lifetime.end.p0(i64 4, ptr nonnull %2) #22
  br label %13

13:                                               ; preds = %12, %1
  ret void
}